; Function Attrs: mustprogress uwtable
define noundef zeroext i1 @_ZNK10open_spiel12connect_four16ConnectFourState22HasLineFromInDirectionEiiiii(ptr noundef nonnull readonly align 8 captures(none) dereferenceable(236) %0, i32 noundef %1, i32 noundef %2, i32 noundef %3, i32 noundef %4, i32 noundef %5) local_unnamed_addr #3 align 2 personality ptr @__gxx_personality_v0 {
  %7 = alloca %"class.std::__cxx11::basic_string", align 8
  %8 = alloca %"class.absl::debian2::AlphaNum", align 8
  %9 = alloca %"class.absl::debian2::AlphaNum", align 8
  %10 = mul nsw i32 %4, 3
  %11 = add nsw i32 %10, %2
  %12 = icmp sgt i32 %11, 5
  br i1 %12, label %.loopexit, label %13

13:                                               ; preds = %6
  %14 = mul nsw i32 %5, 3
  %15 = add nsw i32 %14, %3
  %16 = icmp slt i32 %11, 0
  %17 = icmp ugt i32 %15, 6
  %or.cond24 = or i1 %16, %17
  br i1 %or.cond24, label %.loopexit, label %18

18:                                               ; preds = %13
  call void @llvm.lifetime.start.p0(i64 32, ptr nonnull %7)
  call void @llvm.lifetime.start.p0(i64 48, ptr nonnull %8)
  call void @llvm.lifetime.start.p0(i64 48, ptr nonnull %9)
  switch i32 %1, label %_ZN4absl7debian28AlphaNumC2EPKc.exit.i [
    i32 0, label %_ZN10open_spiel12connect_four12_GLOBAL__N_113PlayerToStateEi.exit
    i32 1, label %19
  ]

19:                                               ; preds = %18
  br label %_ZN10open_spiel12connect_four12_GLOBAL__N_113PlayerToStateEi.exit

_ZN4absl7debian28AlphaNumC2EPKc.exit.i:           ; preds = %18
  store ptr @.str.26, ptr %8, align 8
  %20 = getelementptr inbounds nuw i8, ptr %8, i64 8
  store i64 18, ptr %20, align 8
  %21 = getelementptr inbounds nuw i8, ptr %9, i64 16
  %22 = call noundef ptr @_ZN4absl7debian216numbers_internal15FastIntToBufferEiPc(i32 noundef %1, ptr noundef nonnull %21)
  %23 = ptrtoint ptr %22 to i64
  %24 = ptrtoint ptr %21 to i64
  %25 = sub i64 %23, %24
  store ptr %21, ptr %9, align 8
  %26 = icmp sgt i64 %25, -1
  br i1 %26, label %_ZN4absl7debian28AlphaNumC2Ei.exit.i, label %27

27:                                               ; preds = %_ZN4absl7debian28AlphaNumC2EPKc.exit.i
  call void @llvm.trap()
  unreachable

_ZN4absl7debian28AlphaNumC2Ei.exit.i:             ; preds = %_ZN4absl7debian28AlphaNumC2EPKc.exit.i
  %28 = getelementptr inbounds nuw i8, ptr %9, i64 8
  store i64 %25, ptr %28, align 8
  call void @_ZN4absl7debian26StrCatB5cxx11ERKNS0_8AlphaNumES3_(ptr dead_on_unwind nonnull writable sret(%"class.std::__cxx11::basic_string") align 8 %7, ptr noundef nonnull align 8 dereferenceable(48) %8, ptr noundef nonnull align 8 dereferenceable(48) %9)
  invoke void @_ZN10open_spiel15SpielFatalErrorERKNSt7__cxx1112basic_stringIcSt11char_traitsIcESaIcEEE(ptr noundef nonnull align 8 dereferenceable(32) %7) #24
          to label %29 unwind label %30

29:                                               ; preds = %_ZN4absl7debian28AlphaNumC2Ei.exit.i
  unreachable

30:                                               ; preds = %_ZN4absl7debian28AlphaNumC2Ei.exit.i
  %31 = landingpad { ptr, i32 }
          cleanup
  call void @_ZNSt7__cxx1112basic_stringIcSt11char_traitsIcESaIcEED1Ev(ptr noundef nonnull align 8 dereferenceable(32) %7) #25
  resume { ptr, i32 } %31

_ZN10open_spiel12connect_four12_GLOBAL__N_113PlayerToStateEi.exit: ; preds = %18, %19
  %.0.i = phi i32 [ 1, %19 ], [ 2, %18 ]
  call void @llvm.lifetime.end.p0(i64 32, ptr nonnull %7)
  call void @llvm.lifetime.end.p0(i64 48, ptr nonnull %8)
  call void @llvm.lifetime.end.p0(i64 48, ptr nonnull %9)
  %32 = getelementptr inbounds nuw i8, ptr %0, i64 68
  %33 = sext i32 %2 to i64
  %34 = sext i32 %4 to i64
  %35 = sext i32 %3 to i64
  %36 = sext i32 %5 to i64
  br label %37

37:                                               ; preds = %_ZN10open_spiel12connect_four12_GLOBAL__N_113PlayerToStateEi.exit, %42
  %indvars.iv28 = phi i64 [ %35, %_ZN10open_spiel12connect_four12_GLOBAL__N_113PlayerToStateEi.exit ], [ %indvars.iv.next29, %42 ]
  %indvars.iv = phi i64 [ %33, %_ZN10open_spiel12connect_four12_GLOBAL__N_113PlayerToStateEi.exit ], [ %indvars.iv.next, %42 ]
  %.027 = phi i32 [ 0, %_ZN10open_spiel12connect_four12_GLOBAL__N_113PlayerToStateEi.exit ], [ %43, %42 ]
  %38 = mul nsw i64 %indvars.iv, 7
  %39 = add nsw i64 %38, %indvars.iv28
  %40 = getelementptr inbounds [42 x i32], ptr %32, i64 0, i64 %39
  %41 = load i32, ptr %40, align 4
  %.not = icmp eq i32 %41, %.0.i
  br i1 %.not, label %42, label %.loopexit

42:                                               ; preds = %37
  %indvars.iv.next = add nsw i64 %indvars.iv, %34
  %indvars.iv.next29 = add nsw i64 %indvars.iv28, %36
  %43 = add nuw nsw i32 %.027, 1
  %exitcond.not = icmp eq i32 %43, 4
  br i1 %exitcond.not, label %.loopexit, label %37, !llvm.loop !10

.loopexit:                                        ; preds = %42, %37, %6, %13
  %.019 = phi i1 [ false, %13 ], [ false, %6 ], [ %.not, %37 ], [ %.not, %42 ]
  ret i1 %.019
}